target datalayout = "e-m:e-p270:32:32-p271:32:32-p272:64:64-i64:64-i128:128-f80:128-n8:16:32:64-S128"
target triple = "x86_64-pc-linux-gnu"

%struct.t_psdata = type { ptr, %"class.std::vector", float, i32 }
%"class.std::vector" = type { %"struct.std::_Vector_base" }
%"struct.std::_Vector_base" = type { %"struct.std::_Vector_base<t_rgb, std::allocator<t_rgb>>::_Vector_impl" }
%"struct.std::_Vector_base<t_rgb, std::allocator<t_rgb>>::_Vector_impl" = type { %"struct.std::_Vector_base<t_rgb, std::allocator<t_rgb>>::_Vector_impl_data" }
%"struct.std::_Vector_base<t_rgb, std::allocator<t_rgb>>::_Vector_impl_data" = type { ptr, ptr, ptr }
%struct.t_rgb = type { double, double, double }

@.str.26 = private unnamed_addr constant [4 x i8] c"C%d\00", align 1
@.str.30 = private unnamed_addr constant [4 x i8] c"%s\0A\00", align 1
@.str.32 = private unnamed_addr constant [10 x i8] c"/y %g by\0A\00", align 1
@.str.34 = private unnamed_addr constant [6 x i8] c"B%zd\0A\00", align 1

; Function Attrs: mustprogress nounwind uwtable
define internal void @_ZL11ps_selcolorP8t_psdataPc(ptr noundef %0, ptr noundef %1) #3 {
  %3 = alloca ptr, align 8
  %4 = alloca ptr, align 8
  store ptr %0, ptr %3, align 8, !tbaa !26
  store ptr %1, ptr %4, align 8, !tbaa !8
  %5 = load ptr, ptr %3, align 8, !tbaa !26
  %6 = getelementptr inbounds nuw %struct.t_psdata, ptr %5, i32 0, i32 0
  %7 = load ptr, ptr %6, align 8, !tbaa !17
  %8 = load ptr, ptr %4, align 8, !tbaa !8
  %9 = call i32 (ptr, ptr, ...) @fprintf(ptr noundef %7, ptr noundef @.str.30, ptr noundef %8) #14
  ret void
}

; Function Attrs: mustprogress uwtable
define void @_Z8ps_colorP8t_psdatafff(ptr noundef %0, float noundef %1, float noundef %2, float noundef %3) #0 {
  %5 = alloca ptr, align 8
  %6 = alloca float, align 4
  %7 = alloca float, align 4
  %8 = alloca float, align 4
  %9 = alloca [12 x i8], align 1
  %10 = alloca i32, align 4
  store ptr %0, ptr %5, align 8, !tbaa !26
  store float %1, ptr %6, align 4, !tbaa !15
  store float %2, ptr %7, align 4, !tbaa !15
  store float %3, ptr %8, align 4, !tbaa !15
  call void @llvm.lifetime.start.p0(i64 12, ptr %9) #14
  call void @llvm.lifetime.start.p0(i64 4, ptr %10) #14
  %11 = load ptr, ptr %5, align 8, !tbaa !26
  %12 = load float, ptr %6, align 4, !tbaa !15
  %13 = load float, ptr %7, align 4, !tbaa !15
  %14 = load float, ptr %8, align 4, !tbaa !15
  %15 = call noundef i64 @_ZL10search_colP8t_psdatafff(ptr noundef %11, float noundef %12, float noundef %13, float noundef %14)
  %16 = trunc i64 %15 to i32
  store i32 %16, ptr %10, align 4, !tbaa !69
  %17 = getelementptr inbounds [12 x i8], ptr %9, i64 0, i64 0
  %18 = load i32, ptr %10, align 4, !tbaa !69
  %19 = call i32 (ptr, ptr, ...) @sprintf(ptr noundef %17, ptr noundef @.str.26, i32 noundef %18) #14
  %20 = load ptr, ptr %5, align 8, !tbaa !26
  %21 = getelementptr inbounds [12 x i8], ptr %9, i64 0, i64 0
  call void @_ZL11ps_selcolorP8t_psdataPc(ptr noundef %20, ptr noundef %21)
  call void @llvm.lifetime.end.p0(i64 4, ptr %10) #14
  call void @llvm.lifetime.end.p0(i64 12, ptr %9) #14
  ret void
}

; Function Attrs: mustprogress uwtable
define void @_Z10ps_rgb_boxP8t_psdataP5t_rgb(ptr noundef %0, ptr noundef %1) #0 {
  %3 = alloca ptr, align 8
  %4 = alloca ptr, align 8
  store ptr %0, ptr %3, align 8, !tbaa !26
  store ptr %1, ptr %4, align 8, !tbaa !68
  %5 = load ptr, ptr %3, align 8, !tbaa !26
  %6 = getelementptr inbounds nuw %struct.t_psdata, ptr %5, i32 0, i32 0
  %7 = load ptr, ptr %6, align 8, !tbaa !17
  %8 = load ptr, ptr %3, align 8, !tbaa !26
  %9 = load ptr, ptr %4, align 8, !tbaa !68
  %10 = getelementptr inbounds nuw %struct.t_rgb, ptr %9, i32 0, i32 0
  %11 = load double, ptr %10, align 8, !tbaa !70
  %12 = fptrunc double %11 to float
  %13 = load ptr, ptr %4, align 8, !tbaa !68
  %14 = getelementptr inbounds nuw %struct.t_rgb, ptr %13, i32 0, i32 1
  %15 = load double, ptr %14, align 8, !tbaa !73
  %16 = fptrunc double %15 to float
  %17 = load ptr, ptr %4, align 8, !tbaa !68
  %18 = getelementptr inbounds nuw %struct.t_rgb, ptr %17, i32 0, i32 2
  %19 = load double, ptr %18, align 8, !tbaa !74
  %20 = fptrunc double %19 to float
  %21 = call noundef i64 @_ZL10search_colP8t_psdatafff(ptr noundef %8, float noundef %12, float noundef %16, float noundef %20)
  %22 = call i32 (ptr, ptr, ...) @fprintf(ptr noundef %7, ptr noundef @.str.34, i64 noundef %21) #14
  ret void
}

; Function Attrs: mustprogress uwtable
define void @_Z6ps_rgbP8t_psdataPK5t_rgb(ptr noundef %0, ptr noundef %1) #0 {
  %3 = alloca ptr, align 8
  %4 = alloca ptr, align 8
  store ptr %0, ptr %3, align 8, !tbaa !26
  store ptr %1, ptr %4, align 8, !tbaa !68
  %5 = load ptr, ptr %3, align 8, !tbaa !26
  %6 = load ptr, ptr %4, align 8, !tbaa !68
  %7 = getelementptr inbounds nuw %struct.t_rgb, ptr %6, i32 0, i32 0
  %8 = load double, ptr %7, align 8, !tbaa !70
  %9 = fptrunc double %8 to float
  %10 = load ptr, ptr %4, align 8, !tbaa !68
  %11 = getelementptr inbounds nuw %struct.t_rgb, ptr %10, i32 0, i32 1
  %12 = load double, ptr %11, align 8, !tbaa !73
  %13 = fptrunc double %12 to float
  %14 = load ptr, ptr %4, align 8, !tbaa !68
  %15 = getelementptr inbounds nuw %struct.t_rgb, ptr %14, i32 0, i32 2
  %16 = load double, ptr %15, align 8, !tbaa !74
  %17 = fptrunc double %16 to float
  call void @_Z8ps_colorP8t_psdatafff(ptr noundef %5, float noundef %9, float noundef %13, float noundef %17)
  ret void
}

; Function Attrs: mustprogress uwtable
define void @_Z11ps_rgb_nboxP8t_psdataP5t_rgbf(ptr noundef %0, ptr noundef %1, float noundef %2) #0 {
  %4 = alloca ptr, align 8
  %5 = alloca ptr, align 8
  %6 = alloca float, align 4
  %7 = alloca i32, align 4
  store ptr %0, ptr %4, align 8, !tbaa !26
  store ptr %1, ptr %5, align 8, !tbaa !68
  store float %2, ptr %6, align 4, !tbaa !15
  call void @llvm.lifetime.start.p0(i64 4, ptr %7) #14
  %8 = load float, ptr %6, align 4, !tbaa !15
  %9 = fcmp ogt float %8, 2.000000e+00
  br i1 %9, label %10, label %23

10:                                               ; preds = %3
  %11 = load ptr, ptr %4, align 8, !tbaa !26
  %12 = load ptr, ptr %5, align 8, !tbaa !68
  call void @_Z6ps_rgbP8t_psdataPK5t_rgb(ptr noundef %11, ptr noundef %12)
  %13 = load ptr, ptr %4, align 8, !tbaa !26
  %14 = getelementptr inbounds nuw %struct.t_psdata, ptr %13, i32 0, i32 0
  %15 = load ptr, ptr %14, align 8, !tbaa !17
  %16 = load float, ptr %6, align 4, !tbaa !15
  %17 = load ptr, ptr %4, align 8, !tbaa !26
  %18 = getelementptr inbounds nuw %struct.t_psdata, ptr %17, i32 0, i32 2
  %19 = load float, ptr %18, align 8, !tbaa !28
  %20 = fmul float %16, %19
  %21 = fpext float %20 to double
  %22 = call i32 (ptr, ptr, ...) @fprintf(ptr noundef %15, ptr noundef @.str.32, double noundef %21) #14
  br label %36

23:                                               ; preds = %3
  store i32 0, ptr %7, align 4, !tbaa !69
  br label %24

24:                                               ; preds = %32, %23
  %25 = load i32, ptr %7, align 4, !tbaa !69
  %26 = sitofp i32 %25 to float
  %27 = load float, ptr %6, align 4, !tbaa !15
  %28 = fcmp olt float %26, %27
  br i1 %28, label %29, label %35

29:                                               ; preds = %24
  %30 = load ptr, ptr %4, align 8, !tbaa !26
  %31 = load ptr, ptr %5, align 8, !tbaa !68
  call void @_Z10ps_rgb_boxP8t_psdataP5t_rgb(ptr noundef %30, ptr noundef %31)
  br label %32

32:                                               ; preds = %29
  %33 = load i32, ptr %7, align 4, !tbaa !69
  %34 = add nsw i32 %33, 1
  store i32 %34, ptr %7, align 4, !tbaa !69
  br label %24, !llvm.loop !89

35:                                               ; preds = %24
  br label %36

36:                                               ; preds = %35, %10
  call void @llvm.lifetime.end.p0(i64 4, ptr %7) #14
  ret void
}