; Function Attrs: mustprogress uwtable
define void @_Z11ps_rgb_nboxP8t_psdataP5t_rgbf(ptr noundef captures(none) %0, ptr noundef readonly captures(none) %1, float noundef %2) local_unnamed_addr #3 {
  %4 = alloca [12 x i8], align 1
  %5 = fcmp ogt float %2, 2.000000e+00
  br i1 %5, label %9, label %.preheader

.preheader:                                       ; preds = %3
  %6 = fcmp ogt float %2, 0.000000e+00
  br i1 %6, label %.lr.ph, label %.loopexit

.lr.ph:                                           ; preds = %.preheader
  %7 = getelementptr inbounds nuw i8, ptr %1, i64 8
  %8 = getelementptr inbounds nuw i8, ptr %1, i64 16
  br label %28

9:                                                ; preds = %3
  %10 = load double, ptr %1, align 8, !tbaa !36
  %11 = fptrunc double %10 to float
  %12 = getelementptr inbounds nuw i8, ptr %1, i64 8
  %13 = load double, ptr %12, align 8, !tbaa !39
  %14 = fptrunc double %13 to float
  %15 = getelementptr inbounds nuw i8, ptr %1, i64 16
  %16 = load double, ptr %15, align 8, !tbaa !40
  %17 = fptrunc double %16 to float
  call void @llvm.lifetime.start.p0(i64 12, ptr nonnull %4) #18
  %18 = tail call fastcc noundef i64 @_ZL10search_colP8t_psdatafff(ptr noundef %0, float noundef %11, float noundef %14, float noundef %17)
  %19 = trunc i64 %18 to i32
  %20 = call i32 (ptr, ptr, ...) @sprintf(ptr noundef nonnull dereferenceable(1) %4, ptr noundef nonnull dereferenceable(1) @.str.26, i32 noundef %19) #18
  %.val.i.i = load ptr, ptr %0, align 8, !tbaa !9
  %21 = call i32 (ptr, ptr, ...) @fprintf(ptr noundef %.val.i.i, ptr noundef nonnull @.str.30, ptr noundef nonnull %4) #18
  call void @llvm.lifetime.end.p0(i64 12, ptr nonnull %4) #18
  %22 = load ptr, ptr %0, align 8, !tbaa !9
  %23 = getelementptr inbounds nuw i8, ptr %0, i64 32
  %24 = load float, ptr %23, align 8, !tbaa !51
  %25 = fmul float %2, %24
  %26 = fpext float %25 to double
  %27 = call i32 (ptr, ptr, ...) @fprintf(ptr noundef %22, ptr noundef nonnull @.str.32, double noundef %26) #18
  br label %.loopexit

28:                                               ; preds = %.lr.ph, %28
  %.011 = phi i32 [ 0, %.lr.ph ], [ %38, %28 ]
  %29 = load ptr, ptr %0, align 8, !tbaa !9
  %30 = load double, ptr %1, align 8, !tbaa !36
  %31 = fptrunc double %30 to float
  %32 = load double, ptr %7, align 8, !tbaa !39
  %33 = fptrunc double %32 to float
  %34 = load double, ptr %8, align 8, !tbaa !40
  %35 = fptrunc double %34 to float
  %36 = tail call fastcc noundef i64 @_ZL10search_colP8t_psdatafff(ptr noundef nonnull %0, float noundef %31, float noundef %33, float noundef %35)
  %37 = tail call i32 (ptr, ptr, ...) @fprintf(ptr noundef %29, ptr noundef nonnull @.str.34, i64 noundef %36) #18
  %38 = add nuw nsw i32 %.011, 1
  %39 = uitofp nneg i32 %38 to float
  %40 = fcmp ogt float %2, %39
  br i1 %40, label %28, label %.loopexit, !llvm.loop !52

.loopexit:                                        ; preds = %28, %.preheader, %9
  ret void
}